; Function Attrs: mustprogress nofree norecurse nosync nounwind memory(argmem: readwrite) uwtable
define void @_ZN5boost4urls6detail8url_impl14apply_userinfoERKNS0_15pct_string_viewEPS4_(ptr nocapture noundef nonnull align 8 dereferenceable(171) %0, ptr nocapture noundef nonnull readonly align 8 dereferenceable(24) %1, ptr noundef readonly %2) local_unnamed_addr #3 align 2 {
  %4 = getelementptr inbounds nuw i8, ptr %1, i64 8
  %5 = load i64, ptr %4, align 8, !tbaa !16
  %6 = getelementptr inbounds nuw i8, ptr %0, i64 8
  %7 = getelementptr inbounds i8, ptr %0, i64 16
  %8 = load i64, ptr %7, align 8, !tbaa !13
  %9 = load i64, ptr %6, align 8, !tbaa !13
  %.neg.i = sub i64 %5, %8
  %10 = add i64 %.neg.i, %9
  br label %11

11:                                               ; preds = %11, %3
  %indvars.iv.i = phi i64 [ 0, %3 ], [ %indvars.iv.next.i, %11 ]
  %indvars.iv.next.i = add nuw nsw i64 %indvars.iv.i, 1
  %12 = getelementptr inbounds [8 x i64], ptr %6, i64 0, i64 %indvars.iv.next.i
  %13 = load i64, ptr %12, align 8, !tbaa !13
  %14 = add i64 %10, %13
  store i64 %14, ptr %12, align 8, !tbaa !13
  %exitcond.not.i = icmp eq i64 %indvars.iv.next.i, 7
  br i1 %exitcond.not.i, label %_ZN5boost4urls6detail8url_impl8set_sizeEim.exit, label %11, !llvm.loop !14

_ZN5boost4urls6detail8url_impl8set_sizeEim.exit:  ; preds = %11
  %15 = getelementptr inbounds nuw i8, ptr %1, i64 16
  %16 = load i64, ptr %15, align 8, !tbaa !18
  %17 = getelementptr inbounds nuw i8, ptr %0, i64 72
  store i64 %16, ptr %17, align 8, !tbaa !13
  %.not = icmp eq ptr %2, null
  br i1 %.not, label %33, label %18

18:                                               ; preds = %_ZN5boost4urls6detail8url_impl8set_sizeEim.exit
  %19 = getelementptr inbounds nuw i8, ptr %2, i64 8
  %20 = load i64, ptr %19, align 8, !tbaa !16
  %21 = getelementptr inbounds i8, ptr %0, i64 24
  %22 = load i64, ptr %21, align 8, !tbaa !13
  %23 = load i64, ptr %7, align 8, !tbaa !13
  %.neg.i6 = add i64 %20, 2
  %24 = sub i64 %.neg.i6, %22
  %25 = add i64 %24, %23
  br label %26

26:                                               ; preds = %26, %18
  %indvars.iv.i7 = phi i64 [ 1, %18 ], [ %indvars.iv.next.i8, %26 ]
  %indvars.iv.next.i8 = add nuw nsw i64 %indvars.iv.i7, 1
  %27 = getelementptr inbounds [8 x i64], ptr %6, i64 0, i64 %indvars.iv.next.i8
  %28 = load i64, ptr %27, align 8, !tbaa !13
  %29 = add i64 %25, %28
  store i64 %29, ptr %27, align 8, !tbaa !13
  %exitcond.not.i9 = icmp eq i64 %indvars.iv.next.i8, 7
  br i1 %exitcond.not.i9, label %_ZN5boost4urls6detail8url_impl8set_sizeEim.exit10, label %26, !llvm.loop !14

_ZN5boost4urls6detail8url_impl8set_sizeEim.exit10: ; preds = %26
  %30 = getelementptr inbounds nuw i8, ptr %2, i64 16
  %31 = load i64, ptr %30, align 8, !tbaa !18
  %32 = getelementptr inbounds i8, ptr %0, i64 80
  store i64 %31, ptr %32, align 8, !tbaa !13
  br label %_ZN5boost4urls6detail8url_impl8set_sizeEim.exit15

33:                                               ; preds = %_ZN5boost4urls6detail8url_impl8set_sizeEim.exit
  %34 = getelementptr inbounds i8, ptr %0, i64 24
  %35 = load i64, ptr %34, align 8, !tbaa !13
  %36 = load i64, ptr %7, align 8, !tbaa !13
  %reass.sub = sub i64 %36, %35
  %37 = add i64 %reass.sub, 1
  br label %38

38:                                               ; preds = %38, %33
  %indvars.iv.i12 = phi i64 [ 1, %33 ], [ %indvars.iv.next.i13, %38 ]
  %indvars.iv.next.i13 = add nuw nsw i64 %indvars.iv.i12, 1
  %39 = getelementptr inbounds [8 x i64], ptr %6, i64 0, i64 %indvars.iv.next.i13
  %40 = load i64, ptr %39, align 8, !tbaa !13
  %41 = add i64 %37, %40
  store i64 %41, ptr %39, align 8, !tbaa !13
  %exitcond.not.i14 = icmp eq i64 %indvars.iv.next.i13, 7
  br i1 %exitcond.not.i14, label %_ZN5boost4urls6detail8url_impl8set_sizeEim.exit15, label %38, !llvm.loop !14

_ZN5boost4urls6detail8url_impl8set_sizeEim.exit15: ; preds = %38, %_ZN5boost4urls6detail8url_impl8set_sizeEim.exit10
  ret void
}